target datalayout = "e-m:e-p270:32:32-p271:32:32-p272:64:64-i64:64-i128:128-f80:128-n8:16:32:64-S128"
target triple = "x86_64-pc-linux-gnu"

%class.QString = type { ptr }
%class.QObject = type { ptr, %class.QScopedPointer }
%class.QScopedPointer = type { ptr }
%class.QFlags = type { i32 }
%class.QualityMapperDialog = type { %class.QDockWidget, %"class.Ui::QualityMapperDialogClass", ptr, ptr, %class.QGraphicsScene, [3 x ptr], double, i8, i8, %class.QList, i32, ptr, ptr, ptr, %class.QGraphicsScene, ptr, [3 x %class.QList.22], ptr, %class.QString, %class.QList, %class.QList, i8, %class.QList.25, %class.QList, ptr, ptr }
%class.QDockWidget = type { %class.QWidget }
%class.QWidget = type { %class.QObject, %class.QPaintDevice, ptr }
%class.QPaintDevice = type { ptr, i16, ptr }
%"class.Ui::QualityMapperDialogClass" = type { %class.Ui_QualityMapperDialogClass }
%class.Ui_QualityMapperDialogClass = type { ptr, ptr, ptr, ptr, ptr, ptr, ptr, ptr, ptr, ptr, ptr, ptr, ptr, ptr, ptr, ptr, ptr, ptr, ptr, ptr, ptr, ptr, ptr, ptr, ptr, ptr, ptr, ptr, ptr, ptr, ptr, ptr, ptr, ptr, ptr, ptr, ptr, ptr, ptr, ptr, ptr, ptr, ptr, ptr, ptr, ptr, ptr, ptr, ptr, ptr, ptr, ptr, ptr, ptr, ptr, ptr, ptr, ptr, ptr, ptr, ptr, ptr, ptr, ptr, ptr, ptr, ptr, ptr }
%class.QGraphicsScene = type { %class.QObject }
%class.QList.22 = type { %union.anon.24 }
%union.anon.24 = type { %struct.QListData }
%struct.QListData = type { ptr }
%class.QList.25 = type { %union.anon.27 }
%union.anon.27 = type { %struct.QListData }
%class.QList = type { %union.anon }
%union.anon = type { %struct.QListData }
%class.QFont = type <{ %class.QExplicitlySharedDataPointer, i32, [4 x i8] }>
%class.QExplicitlySharedDataPointer = type { ptr }
%class.QRect = type { i32, i32, i32, i32 }
%class.QWidgetData = type { i64, i32, %class.QFlags, i32, %class.QRect, [4 x i8], %class.QPalette, %class.QFont, %class.QRect }
%class.QPalette = type <{ ptr, %union.anon.173, [4 x i8] }>
%union.anon.173 = type { %"struct.QPalette::Data" }
%"struct.QPalette::Data" = type { i32 }
%struct.CHART_INFO = type { ptr, float, float, float, float, i32, i32 }

; Function Attrs: mustprogress nounwind uwtable
define linkonce_odr noundef i32 @_ZNK5QRect5widthEv(ptr noundef nonnull align 4 dereferenceable(16) %0) #4 comdat align 2 {
  %2 = alloca ptr, align 8
  store ptr %0, ptr %2, align 8
  %3 = load ptr, ptr %2, align 8
  %4 = getelementptr inbounds %class.QRect, ptr %3, i32 0, i32 2
  %5 = load i32, ptr %4, align 4
  %6 = getelementptr inbounds %class.QRect, ptr %3, i32 0, i32 0
  %7 = load i32, ptr %6, align 4
  %8 = sub nsw i32 %5, %7
  %9 = add nsw i32 %8, 1
  ret i32 %9
}

; Function Attrs: mustprogress nounwind uwtable
define linkonce_odr noundef i32 @_ZNK7QWidget5widthEv(ptr noundef nonnull align 8 dereferenceable(48) %0) #4 comdat align 2 {
  %2 = alloca ptr, align 8
  store ptr %0, ptr %2, align 8
  %3 = load ptr, ptr %2, align 8
  %4 = getelementptr inbounds %class.QWidget, ptr %3, i32 0, i32 2
  %5 = load ptr, ptr %4, align 8
  %6 = getelementptr inbounds %class.QWidgetData, ptr %5, i32 0, i32 4
  %7 = call noundef i32 @_ZNK5QRect5widthEv(ptr noundef nonnull align 4 dereferenceable(16) %6) #3
  ret i32 %7
}

; Function Attrs: mustprogress nounwind uwtable
define linkonce_odr noundef float @_ZN10CHART_INFO10leftBorderEv(ptr noundef nonnull align 8 dereferenceable(32) %0) #4 comdat align 2 {
  %2 = alloca ptr, align 8
  store ptr %0, ptr %2, align 8
  ret float 1.000000e+01
}

; Function Attrs: mustprogress nounwind uwtable
define linkonce_odr noundef float @_ZN10CHART_INFO11rightBorderEv(ptr noundef nonnull align 8 dereferenceable(32) %0) #4 comdat align 2 {
  %2 = alloca ptr, align 8
  store ptr %0, ptr %2, align 8
  %3 = load ptr, ptr %2, align 8
  %4 = getelementptr inbounds %struct.CHART_INFO, ptr %3, i32 0, i32 0
  %5 = load ptr, ptr %4, align 8
  %6 = call noundef i32 @_ZNK7QWidget5widthEv(ptr noundef nonnull align 8 dereferenceable(48) %5)
  %7 = sitofp i32 %6 to float
  %8 = fsub float %7, 1.000000e+01
  ret float %8
}

; Function Attrs: mustprogress nounwind uwtable
define linkonce_odr noundef i32 @_ZNSt14numeric_limitsIiE3maxEv() #4 comdat align 2 {
  ret i32 2147483647
}

; Function Attrs: mustprogress nounwind uwtable
define linkonce_odr noundef i32 @_ZNSt14numeric_limitsIiE3minEv() #4 comdat align 2 {
  ret i32 -2147483648
}

; Function Attrs: mustprogress nounwind uwtable
define linkonce_odr noundef float @_ZNSt14numeric_limitsIfE7epsilonEv() #4 comdat align 2 {
  ret float 0x3E80000000000000
}

; Function Attrs: mustprogress uwtable
define linkonce_odr noundef float @_ZN10CHART_INFO10chartWidthEv(ptr noundef nonnull align 8 dereferenceable(32) %0) #5 comdat align 2 {
  %2 = alloca ptr, align 8
  store ptr %0, ptr %2, align 8
  %3 = load ptr, ptr %2, align 8
  %4 = call noundef float @_ZN10CHART_INFO11rightBorderEv(ptr noundef nonnull align 8 dereferenceable(32) %3)
  %5 = call noundef float @_ZN10CHART_INFO10leftBorderEv(ptr noundef nonnull align 8 dereferenceable(32) %3)
  %6 = fsub float %4, %5
  ret float %6
}

; Function Attrs: mustprogress uwtable
define void @_ZN19QualityMapperDialog22initEqualizerSpinboxesEv(ptr noundef nonnull align 8 dereferenceable(824) %0) #5 align 2 {
  %2 = alloca ptr, align 8
  %3 = alloca double, align 8
  %4 = alloca i32, align 4
  %5 = alloca double, align 8
  store ptr %0, ptr %2, align 8
  %6 = load ptr, ptr %2, align 8
  %7 = getelementptr inbounds %class.QualityMapperDialog, ptr %6, i32 0, i32 3
  %8 = load ptr, ptr %7, align 8
  %9 = getelementptr inbounds %struct.CHART_INFO, ptr %8, i32 0, i32 2
  %10 = load float, ptr %9, align 4
  %11 = getelementptr inbounds %class.QualityMapperDialog, ptr %6, i32 0, i32 3
  %12 = load ptr, ptr %11, align 8
  %13 = getelementptr inbounds %struct.CHART_INFO, ptr %12, i32 0, i32 1
  %14 = load float, ptr %13, align 8
  %15 = fsub float %10, %14
  %16 = getelementptr inbounds %class.QualityMapperDialog, ptr %6, i32 0, i32 3
  %17 = load ptr, ptr %16, align 8
  %18 = call noundef float @_ZN10CHART_INFO10chartWidthEv(ptr noundef nonnull align 8 dereferenceable(32) %17)
  %19 = fdiv float %15, %18
  %20 = fpext float %19 to double
  store double %20, ptr %3, align 8
  store i32 0, ptr %4, align 4
  %21 = load double, ptr %3, align 8
  %22 = call noundef float @_ZNSt14numeric_limitsIfE7epsilonEv() #3
  %23 = fpext float %22 to double
  %24 = fcmp ogt double %21, %23
  br i1 %24, label %25, label %36

25:                                               ; preds = %1
  %26 = load double, ptr %3, align 8
  store double %26, ptr %5, align 8
  br label %27

27:                                               ; preds = %30, %25
  %28 = load double, ptr %5, align 8
  %29 = fcmp olt double %28, 1.000000e-01
  br i1 %29, label %30, label %35

30:                                               ; preds = %27
  %31 = load i32, ptr %4, align 4
  %32 = add nsw i32 %31, 1
  store i32 %32, ptr %4, align 4
  %33 = load double, ptr %5, align 8
  %34 = fmul double %33, 1.000000e+01
  store double %34, ptr %5, align 8
  br label %27, !llvm.loop !43

35:                                               ; preds = %27
  br label %36

36:                                               ; preds = %35, %1
  %37 = load i32, ptr %4, align 4
  %38 = add nsw i32 %37, 2
  store i32 %38, ptr %4, align 4
  %39 = getelementptr inbounds %class.QualityMapperDialog, ptr %6, i32 0, i32 1
  %40 = getelementptr inbounds %class.Ui_QualityMapperDialogClass, ptr %39, i32 0, i32 38
  %41 = load ptr, ptr %40, align 8
  %42 = load i32, ptr %4, align 4
  call void @_ZN14QDoubleSpinBox11setDecimalsEi(ptr noundef nonnull align 8 dereferenceable(48) %41, i32 noundef %42)
  %43 = getelementptr inbounds %class.QualityMapperDialog, ptr %6, i32 0, i32 1
  %44 = getelementptr inbounds %class.Ui_QualityMapperDialogClass, ptr %43, i32 0, i32 38
  %45 = load ptr, ptr %44, align 8
  %46 = getelementptr inbounds %class.QualityMapperDialog, ptr %6, i32 0, i32 3
  %47 = load ptr, ptr %46, align 8
  %48 = getelementptr inbounds %struct.CHART_INFO, ptr %47, i32 0, i32 1
  %49 = load float, ptr %48, align 8
  %50 = fpext float %49 to double
  call void @_ZN14QDoubleSpinBox8setValueEd(ptr noundef nonnull align 8 dereferenceable(48) %45, double noundef %50)
  %51 = getelementptr inbounds %class.QualityMapperDialog, ptr %6, i32 0, i32 1
  %52 = getelementptr inbounds %class.Ui_QualityMapperDialogClass, ptr %51, i32 0, i32 38
  %53 = load ptr, ptr %52, align 8
  %54 = call noundef i32 @_ZNSt14numeric_limitsIiE3minEv() #3
  %55 = sitofp i32 %54 to double
  %56 = getelementptr inbounds %class.QualityMapperDialog, ptr %6, i32 0, i32 3
  %57 = load ptr, ptr %56, align 8
  %58 = getelementptr inbounds %struct.CHART_INFO, ptr %57, i32 0, i32 2
  %59 = load float, ptr %58, align 4
  %60 = fpext float %59 to double
  call void @_ZN14QDoubleSpinBox8setRangeEdd(ptr noundef nonnull align 8 dereferenceable(48) %53, double noundef %55, double noundef %60)
  %61 = getelementptr inbounds %class.QualityMapperDialog, ptr %6, i32 0, i32 1
  %62 = getelementptr inbounds %class.Ui_QualityMapperDialogClass, ptr %61, i32 0, i32 38
  %63 = load ptr, ptr %62, align 8
  %64 = load double, ptr %3, align 8
  call void @_ZN14QDoubleSpinBox13setSingleStepEd(ptr noundef nonnull align 8 dereferenceable(48) %63, double noundef %64)
  %65 = getelementptr inbounds %class.QualityMapperDialog, ptr %6, i32 0, i32 1
  %66 = getelementptr inbounds %class.Ui_QualityMapperDialogClass, ptr %65, i32 0, i32 46
  %67 = load ptr, ptr %66, align 8
  %68 = load i32, ptr %4, align 4
  call void @_ZN14QDoubleSpinBox11setDecimalsEi(ptr noundef nonnull align 8 dereferenceable(48) %67, i32 noundef %68)
  %69 = getelementptr inbounds %class.QualityMapperDialog, ptr %6, i32 0, i32 1
  %70 = getelementptr inbounds %class.Ui_QualityMapperDialogClass, ptr %69, i32 0, i32 46
  %71 = load ptr, ptr %70, align 8
  %72 = getelementptr inbounds %class.QualityMapperDialog, ptr %6, i32 0, i32 3
  %73 = load ptr, ptr %72, align 8
  %74 = getelementptr inbounds %struct.CHART_INFO, ptr %73, i32 0, i32 2
  %75 = load float, ptr %74, align 4
  %76 = fpext float %75 to double
  call void @_ZN14QDoubleSpinBox8setValueEd(ptr noundef nonnull align 8 dereferenceable(48) %71, double noundef %76)
  %77 = getelementptr inbounds %class.QualityMapperDialog, ptr %6, i32 0, i32 1
  %78 = getelementptr inbounds %class.Ui_QualityMapperDialogClass, ptr %77, i32 0, i32 46
  %79 = load ptr, ptr %78, align 8
  %80 = getelementptr inbounds %class.QualityMapperDialog, ptr %6, i32 0, i32 3
  %81 = load ptr, ptr %80, align 8
  %82 = getelementptr inbounds %struct.CHART_INFO, ptr %81, i32 0, i32 1
  %83 = load float, ptr %82, align 8
  %84 = fpext float %83 to double
  %85 = call noundef i32 @_ZNSt14numeric_limitsIiE3maxEv() #3
  %86 = sitofp i32 %85 to double
  call void @_ZN14QDoubleSpinBox8setRangeEdd(ptr noundef nonnull align 8 dereferenceable(48) %79, double noundef %84, double noundef %86)
  %87 = getelementptr inbounds %class.QualityMapperDialog, ptr %6, i32 0, i32 1
  %88 = getelementptr inbounds %class.Ui_QualityMapperDialogClass, ptr %87, i32 0, i32 46
  %89 = load ptr, ptr %88, align 8
  %90 = load double, ptr %3, align 8
  call void @_ZN14QDoubleSpinBox13setSingleStepEd(ptr noundef nonnull align 8 dereferenceable(48) %89, double noundef %90)
  %91 = getelementptr inbounds %class.QualityMapperDialog, ptr %6, i32 0, i32 1
  %92 = getelementptr inbounds %class.Ui_QualityMapperDialogClass, ptr %91, i32 0, i32 41
  %93 = load ptr, ptr %92, align 8
  %94 = load i32, ptr %4, align 4
  call void @_ZN14QDoubleSpinBox11setDecimalsEi(ptr noundef nonnull align 8 dereferenceable(48) %93, i32 noundef %94)
  %95 = getelementptr inbounds %class.QualityMapperDialog, ptr %6, i32 0, i32 1
  %96 = getelementptr inbounds %class.Ui_QualityMapperDialogClass, ptr %95, i32 0, i32 41
  %97 = load ptr, ptr %96, align 8
  %98 = getelementptr inbounds %class.QualityMapperDialog, ptr %6, i32 0, i32 3
  %99 = load ptr, ptr %98, align 8
  %100 = getelementptr inbounds %struct.CHART_INFO, ptr %99, i32 0, i32 2
  %101 = load float, ptr %100, align 4
  %102 = getelementptr inbounds %class.QualityMapperDialog, ptr %6, i32 0, i32 3
  %103 = load ptr, ptr %102, align 8
  %104 = getelementptr inbounds %struct.CHART_INFO, ptr %103, i32 0, i32 1
  %105 = load float, ptr %104, align 8
  %106 = fadd float %101, %105
  %107 = fdiv float %106, 2.000000e+00
  %108 = fpext float %107 to double
  call void @_ZN14QDoubleSpinBox8setValueEd(ptr noundef nonnull align 8 dereferenceable(48) %97, double noundef %108)
  %109 = getelementptr inbounds %class.QualityMapperDialog, ptr %6, i32 0, i32 1
  %110 = getelementptr inbounds %class.Ui_QualityMapperDialogClass, ptr %109, i32 0, i32 41
  %111 = load ptr, ptr %110, align 8
  %112 = getelementptr inbounds %class.QualityMapperDialog, ptr %6, i32 0, i32 3
  %113 = load ptr, ptr %112, align 8
  %114 = getelementptr inbounds %struct.CHART_INFO, ptr %113, i32 0, i32 1
  %115 = load float, ptr %114, align 8
  %116 = fpext float %115 to double
  %117 = getelementptr inbounds %class.QualityMapperDialog, ptr %6, i32 0, i32 3
  %118 = load ptr, ptr %117, align 8
  %119 = getelementptr inbounds %struct.CHART_INFO, ptr %118, i32 0, i32 2
  %120 = load float, ptr %119, align 4
  %121 = fpext float %120 to double
  call void @_ZN14QDoubleSpinBox8setRangeEdd(ptr noundef nonnull align 8 dereferenceable(48) %111, double noundef %116, double noundef %121)
  %122 = getelementptr inbounds %class.QualityMapperDialog, ptr %6, i32 0, i32 1
  %123 = getelementptr inbounds %class.Ui_QualityMapperDialogClass, ptr %122, i32 0, i32 41
  %124 = load ptr, ptr %123, align 8
  %125 = load double, ptr %3, align 8
  call void @_ZN14QDoubleSpinBox13setSingleStepEd(ptr noundef nonnull align 8 dereferenceable(48) %124, double noundef %125)
  ret void
}