; Function Attrs: mustprogress uwtable
define void @_ZN19QualityMapperDialog22initEqualizerSpinboxesEv(ptr nocapture noundef nonnull readonly align 8 dereferenceable(824) %0) local_unnamed_addr #9 align 2 {
  %2 = getelementptr inbounds i8, ptr %0, i64 600
  %3 = load ptr, ptr %2, align 8
  %4 = getelementptr inbounds i8, ptr %3, i64 12
  %5 = load float, ptr %4, align 4
  %6 = getelementptr inbounds i8, ptr %3, i64 8
  %7 = load float, ptr %6, align 8
  %8 = fsub float %5, %7
  %9 = load ptr, ptr %3, align 8
  %10 = getelementptr inbounds i8, ptr %9, i64 40
  %11 = load ptr, ptr %10, align 8
  %12 = getelementptr inbounds i8, ptr %11, i64 20
  %13 = getelementptr inbounds i8, ptr %11, i64 28
  %14 = load i32, ptr %13, align 4
  %15 = load i32, ptr %12, align 4
  %16 = add i32 %14, 1
  %17 = sub i32 %16, %15
  %18 = sitofp i32 %17 to float
  %19 = fadd float %18, -1.000000e+01
  %20 = fadd float %19, -1.000000e+01
  %21 = fdiv float %8, %20
  %22 = fpext float %21 to double
  %23 = fcmp ogt float %21, 0x3E80000000000000
  %24 = fcmp olt double %22, 1.000000e-01
  %or.cond = and i1 %23, %24
  br i1 %or.cond, label %.lr.ph, label %.loopexit

.lr.ph:                                           ; preds = %1, %.lr.ph
  %.015 = phi double [ %26, %.lr.ph ], [ %22, %1 ]
  %.01214 = phi i32 [ %25, %.lr.ph ], [ 0, %1 ]
  %25 = add nuw nsw i32 %.01214, 1
  %26 = fmul double %.015, 1.000000e+01
  %27 = fcmp olt double %26, 1.000000e-01
  br i1 %27, label %.lr.ph, label %.loopexit.loopexit, !llvm.loop !124

.loopexit.loopexit:                               ; preds = %.lr.ph
  %28 = add nuw nsw i32 %.01214, 3
  br label %.loopexit

.loopexit:                                        ; preds = %.loopexit.loopexit, %1
  %.1 = phi i32 [ 2, %1 ], [ %28, %.loopexit.loopexit ]
  %29 = getelementptr inbounds i8, ptr %0, i64 352
  %30 = load ptr, ptr %29, align 8
  tail call void @_ZN14QDoubleSpinBox11setDecimalsEi(ptr noundef nonnull align 8 dereferenceable(48) %30, i32 noundef %.1)
  %31 = load ptr, ptr %29, align 8
  %32 = load ptr, ptr %2, align 8
  %33 = getelementptr inbounds i8, ptr %32, i64 8
  %34 = load float, ptr %33, align 8
  %35 = fpext float %34 to double
  tail call void @_ZN14QDoubleSpinBox8setValueEd(ptr noundef nonnull align 8 dereferenceable(48) %31, double noundef %35)
  %36 = load ptr, ptr %29, align 8
  %37 = load ptr, ptr %2, align 8
  %38 = getelementptr inbounds i8, ptr %37, i64 12
  %39 = load float, ptr %38, align 4
  %40 = fpext float %39 to double
  tail call void @_ZN14QDoubleSpinBox8setRangeEdd(ptr noundef nonnull align 8 dereferenceable(48) %36, double noundef 0xC1E0000000000000, double noundef %40)
  %41 = load ptr, ptr %29, align 8
  tail call void @_ZN14QDoubleSpinBox13setSingleStepEd(ptr noundef nonnull align 8 dereferenceable(48) %41, double noundef %22)
  %42 = getelementptr inbounds i8, ptr %0, i64 416
  %43 = load ptr, ptr %42, align 8
  tail call void @_ZN14QDoubleSpinBox11setDecimalsEi(ptr noundef nonnull align 8 dereferenceable(48) %43, i32 noundef %.1)
  %44 = load ptr, ptr %42, align 8
  %45 = load ptr, ptr %2, align 8
  %46 = getelementptr inbounds i8, ptr %45, i64 12
  %47 = load float, ptr %46, align 4
  %48 = fpext float %47 to double
  tail call void @_ZN14QDoubleSpinBox8setValueEd(ptr noundef nonnull align 8 dereferenceable(48) %44, double noundef %48)
  %49 = load ptr, ptr %42, align 8
  %50 = load ptr, ptr %2, align 8
  %51 = getelementptr inbounds i8, ptr %50, i64 8
  %52 = load float, ptr %51, align 8
  %53 = fpext float %52 to double
  tail call void @_ZN14QDoubleSpinBox8setRangeEdd(ptr noundef nonnull align 8 dereferenceable(48) %49, double noundef %53, double noundef 0x41DFFFFFFFC00000)
  %54 = load ptr, ptr %42, align 8
  tail call void @_ZN14QDoubleSpinBox13setSingleStepEd(ptr noundef nonnull align 8 dereferenceable(48) %54, double noundef %22)
  %55 = getelementptr inbounds i8, ptr %0, i64 376
  %56 = load ptr, ptr %55, align 8
  tail call void @_ZN14QDoubleSpinBox11setDecimalsEi(ptr noundef nonnull align 8 dereferenceable(48) %56, i32 noundef %.1)
  %57 = load ptr, ptr %55, align 8
  %58 = load ptr, ptr %2, align 8
  %59 = getelementptr inbounds i8, ptr %58, i64 12
  %60 = load float, ptr %59, align 4
  %61 = getelementptr inbounds i8, ptr %58, i64 8
  %62 = load float, ptr %61, align 8
  %63 = fadd float %60, %62
  %64 = fmul float %63, 5.000000e-01
  %65 = fpext float %64 to double
  tail call void @_ZN14QDoubleSpinBox8setValueEd(ptr noundef nonnull align 8 dereferenceable(48) %57, double noundef %65)
  %66 = load ptr, ptr %55, align 8
  %67 = load ptr, ptr %2, align 8
  %68 = getelementptr inbounds i8, ptr %67, i64 8
  %69 = load float, ptr %68, align 8
  %70 = fpext float %69 to double
  %71 = getelementptr inbounds i8, ptr %67, i64 12
  %72 = load float, ptr %71, align 4
  %73 = fpext float %72 to double
  tail call void @_ZN14QDoubleSpinBox8setRangeEdd(ptr noundef nonnull align 8 dereferenceable(48) %66, double noundef %70, double noundef %73)
  %74 = load ptr, ptr %55, align 8
  tail call void @_ZN14QDoubleSpinBox13setSingleStepEd(ptr noundef nonnull align 8 dereferenceable(48) %74, double noundef %22)
  ret void
}